ARM GAS  C:\Users\Pablo\AppData\Local\Temp\cc5wKjri.s 			page 1


   1              		.cpu cortex-m0
   2              		.fpu softvfp
   3              		.eabi_attribute 20, 1
   4              		.eabi_attribute 21, 1
   5              		.eabi_attribute 23, 3
   6              		.eabi_attribute 24, 1
   7              		.eabi_attribute 25, 1
   8              		.eabi_attribute 26, 1
   9              		.eabi_attribute 30, 1
  10              		.eabi_attribute 34, 0
  11              		.eabi_attribute 18, 4
  12              		.code	16
  13              		.file	"main.c"
  14              		.text
  15              	.Ltext0:
  16              		.cfi_sections	.debug_frame
  17              		.section	.text.main,"ax",%progbits
  18              		.align	2
  19              		.global	main
  20              		.code	16
  21              		.thumb_func
  22              		.type	main, %function
  23              	main:
  24              	.LFB34:
  25              		.file 1 "main.c"
   1:main.c        **** /*
   2:main.c        **** 
   3:main.c        **** The MIT License (MIT)
   4:main.c        **** 
   5:main.c        **** Copyright (c) 2014 CAIMANICS (Pablo Bacho)
   6:main.c        **** 
   7:main.c        **** Permission is hereby granted, free of charge, to any person obtaining a copy
   8:main.c        **** of this software and associated documentation files (the "Software"), to deal
   9:main.c        **** in the Software without restriction, including without limitation the rights
  10:main.c        **** to use, copy, modify, merge, publish, distribute, sublicense, and/or sell
  11:main.c        **** copies of the Software, and to permit persons to whom the Software is
  12:main.c        **** furnished to do so, subject to the following conditions:
  13:main.c        **** 
  14:main.c        **** The above copyright notice and this permission notice shall be included in all
  15:main.c        **** copies or substantial portions of the Software.
  16:main.c        **** 
  17:main.c        **** THE SOFTWARE IS PROVIDED "AS IS", WITHOUT WARRANTY OF ANY KIND, EXPRESS OR
  18:main.c        **** IMPLIED, INCLUDING BUT NOT LIMITED TO THE WARRANTIES OF MERCHANTABILITY,
  19:main.c        **** FITNESS FOR A PARTICULAR PURPOSE AND NONINFRINGEMENT. IN NO EVENT SHALL THE
  20:main.c        **** AUTHORS OR COPYRIGHT HOLDERS BE LIABLE FOR ANY CLAIM, DAMAGES OR OTHER
  21:main.c        **** LIABILITY, WHETHER IN AN ACTION OF CONTRACT, TORT OR OTHERWISE, ARISING FROM,
  22:main.c        **** OUT OF OR IN CONNECTION WITH THE SOFTWARE OR THE USE OR OTHER DEALINGS IN THE
  23:main.c        **** SOFTWARE.
  24:main.c        **** 
  25:main.c        **** */
  26:main.c        **** 
  27:main.c        **** #include <project.h>
  28:main.c        **** 
  29:main.c        **** XBEE_packet_t packet;
  30:main.c        **** uint8_t payload[] = "HOLA";
  31:main.c        **** 
  32:main.c        **** int main()
ARM GAS  C:\Users\Pablo\AppData\Local\Temp\cc5wKjri.s 			page 2


  33:main.c        **** {
  26              		.loc 1 33 0
  27              		.cfi_startproc
  28 0000 30B5     		push	{r4, r5, lr}
  29              		.cfi_def_cfa_offset 12
  30              		.cfi_offset 4, -12
  31              		.cfi_offset 5, -8
  32              		.cfi_offset 14, -4
  33 0002 85B0     		sub	sp, sp, #20
  34              		.cfi_def_cfa_offset 32
  35              	.LVL0:
  34:main.c        ****     uint8_t frameId = 0;
  35:main.c        ****     
  36:main.c        ****     /* Place your initialization/startup code here (e.g. MyInst_Start()) */
  37:main.c        ****     XBEE_Start();
  36              		.loc 1 37 0
  37 0004 FFF7FEFF 		bl	XBEE_Start
  38              	.LVL1:
  38:main.c        ****     
  39:main.c        ****     CyGlobalIntEnable; /* Uncomment this line to enable global interrupts. */
  39              		.loc 1 39 0
  40              	@ 39 "main.c" 1
  41 0008 62B6     		CPSIE   i
  42              	@ 0 "" 2
  34:main.c        ****     uint8_t frameId = 0;
  43              		.loc 1 34 0
  44              		.code	16
  45 000a 0025     		mov	r5, #0
  46              	.LVL2:
  47              	.L2:
  40:main.c        ****     
  41:main.c        ****     for(;;)
  42:main.c        ****     {
  43:main.c        ****         /* Place your application code here. */
  44:main.c        ****         CyDelay(500);
  48              		.loc 1 44 0 discriminator 1
  49 000c FA24     		mov	r4, #250
  50 000e 6400     		lsl	r4, r4, #1
  51 0010 201C     		mov	r0, r4
  52 0012 FFF7FEFF 		bl	CyDelay
  53              	.LVL3:
  45:main.c        ****         LED_Write(1);
  54              		.loc 1 45 0 discriminator 1
  55 0016 0120     		mov	r0, #1
  56 0018 FFF7FEFF 		bl	LED_Write
  57              	.LVL4:
  46:main.c        ****         CyDelay(500);
  58              		.loc 1 46 0 discriminator 1
  59 001c 201C     		mov	r0, r4
  60 001e FFF7FEFF 		bl	CyDelay
  61              	.LVL5:
  47:main.c        ****         LED_Write(0);
  62              		.loc 1 47 0 discriminator 1
  63 0022 0020     		mov	r0, #0
  64 0024 FFF7FEFF 		bl	LED_Write
  65              	.LVL6:
  48:main.c        ****         XBEE_ZigBeeTransmitRequest(&packet, frameId++, XBEE_BROADCAST_HW_ADDRESS, XBEE_BROADCAST_NW
ARM GAS  C:\Users\Pablo\AppData\Local\Temp\cc5wKjri.s 			page 3


  66              		.loc 1 48 0 discriminator 1
  67 0028 6C1C     		add	r4, r5, #1
  68 002a E4B2     		uxtb	r4, r4
  69              	.LVL7:
  70 002c 0023     		mov	r3, #0
  71 002e 0093     		str	r3, [sp]
  72 0030 0193     		str	r3, [sp, #4]
  73 0032 064B     		ldr	r3, .L3
  74 0034 0293     		str	r3, [sp, #8]
  75 0036 0423     		mov	r3, #4
  76 0038 0393     		str	r3, [sp, #12]
  77 003a 0548     		ldr	r0, .L3+4
  78 003c 291C     		mov	r1, r5
  79 003e 054A     		ldr	r2, .L3+8
  80 0040 054B     		ldr	r3, .L3+12
  81 0042 FFF7FEFF 		bl	XBEE_ZigBeeTransmitRequest
  82              	.LVL8:
  83 0046 251C     		mov	r5, r4
  49:main.c        ****     }
  84              		.loc 1 49 0 discriminator 1
  85 0048 E0E7     		b	.L2
  86              	.L4:
  87 004a C046     		.align	2
  88              	.L3:
  89 004c 00000000 		.word	.LANCHOR0
  90 0050 00000000 		.word	packet
  91 0054 00000000 		.word	XBEE_BROADCAST_HW_ADDRESS
  92 0058 00000000 		.word	XBEE_BROADCAST_NWK_ADDRESS
  93              		.cfi_endproc
  94              	.LFE34:
  95              		.size	main, .-main
  96              		.global	payload
  97              		.comm	packet,84,4
  98              		.data
  99              		.align	2
 100              		.set	.LANCHOR0,. + 0
 101              		.type	payload, %object
 102              		.size	payload, 5
 103              	payload:
 104 0000 484F4C41 		.ascii	"HOLA\000"
 104      00
 105 0005 000000   		.text
 106              	.Letext0:
 107              		.file 2 "c:\\program files (x86)\\cypress\\psoc creator\\4.0\\psoc creator\\import\\gnu\\arm\\4.9.
 108              		.file 3 "c:\\program files (x86)\\cypress\\psoc creator\\4.0\\psoc creator\\import\\gnu\\arm\\4.9.
 109              		.file 4 "Generated_Source\\PSoC4/cytypes.h"
 110              		.file 5 "Generated_Source\\PSoC4/XBEE.h"
 111              		.file 6 "Generated_Source\\PSoC4/CyLib.h"
 112              		.file 7 "Generated_Source\\PSoC4/LED.h"